; Function Attrs: mustprogress uwtable
define noundef zeroext i1 @_ZN7Archive10WCheckOpenEPKw(ptr noundef nonnull align 8 dereferenceable(57108) %0, ptr noundef %1) local_unnamed_addr #0 align 2 {
  %3 = alloca %class.uiMsgStore, align 8
  %4 = tail call noundef zeroext i1 @_ZN4File5WOpenEPKw(ptr noundef nonnull align 8 dereferenceable(8256) %0, ptr noundef %1)
  br i1 %4, label %5, label %18

5:                                                ; preds = %2
  %6 = tail call noundef zeroext i1 @_ZN7Archive9IsArchiveEb(ptr noundef nonnull align 8 dereferenceable(57108) %0, i1 noundef zeroext false)
  br i1 %6, label %18, label %7

7:                                                ; preds = %5
  call void @llvm.lifetime.start.p0(i64 112, ptr nonnull %3)
  br label %8

8:                                                ; preds = %8, %7
  %indvars.iv.i.i = phi i64 [ 0, %7 ], [ %indvars.iv.next.i.i, %8 ]
  %9 = getelementptr inbounds [8 x ptr], ptr %3, i64 0, i64 %indvars.iv.i.i
  store ptr @.str.2, ptr %9, align 8
  %indvars.iv.next.i.i = add nuw nsw i64 %indvars.iv.i.i, 1
  %exitcond.not.i.i = icmp eq i64 %indvars.iv.next.i.i, 8
  br i1 %exitcond.not.i.i, label %_Z5uiMsgIJRA2048_wEEv14UIMESSAGE_CODEDpOT_.exit, label %8, !llvm.loop !4

_Z5uiMsgIJRA2048_wEEv14UIMESSAGE_CODEDpOT_.exit:  ; preds = %8
  %10 = getelementptr inbounds i8, ptr %0, i64 52
  %11 = getelementptr inbounds i8, ptr %3, i64 64
  %12 = getelementptr inbounds i8, ptr %3, i64 104
  call void @llvm.memset.p0.i64(ptr noundef nonnull align 8 dereferenceable(40) %11, i8 0, i64 40, i1 false)
  store i32 57, ptr %12, align 8
  %13 = getelementptr inbounds i8, ptr %3, i64 96
  store i32 1, ptr %13, align 8
  store ptr %10, ptr %3, align 8
  call void @_ZN10uiMsgStore3MsgEv(ptr noundef nonnull align 8 dereferenceable(108) %3)
  call void @llvm.lifetime.end.p0(i64 112, ptr nonnull %3)
  %14 = load ptr, ptr %0, align 8
  %15 = getelementptr inbounds i8, ptr %14, i64 24
  %16 = load ptr, ptr %15, align 8
  %17 = call noundef zeroext i1 %16(ptr noundef nonnull align 8 dereferenceable(8256) %0)
  br label %18

18:                                               ; preds = %5, %2, %_Z5uiMsgIJRA2048_wEEv14UIMESSAGE_CODEDpOT_.exit
  %.0 = phi i1 [ false, %_Z5uiMsgIJRA2048_wEEv14UIMESSAGE_CODEDpOT_.exit ], [ false, %2 ], [ true, %5 ]
  ret i1 %.0
}